target datalayout = "e-m:e-p270:32:32-p271:32:32-p272:64:64-i64:64-i128:128-f80:128-n8:16:32:64-S128"
target triple = "x86_64-pc-linux-gnu"

; Function Attrs: mustprogress uwtable
define dso_local noundef i32 @_ZN24cmCPackExternalGenerator19RunPreinstallTargetERKNSt7__cxx1112basic_stringIcSt11char_traitsIcESaIcEEES7_P17cmGlobalGeneratorS7_(ptr noundef nonnull align 8 dereferenceable(368) %0, ptr noundef nonnull align 8 dereferenceable(32) %1, ptr noundef nonnull align 8 dereferenceable(32) %2, ptr noundef %3, ptr noundef nonnull align 8 dereferenceable(32) %4) unnamed_addr #4 align 2 {
  %6 = alloca i32, align 4
  %7 = alloca ptr, align 8
  %8 = alloca ptr, align 8
  %9 = alloca ptr, align 8
  %10 = alloca ptr, align 8
  %11 = alloca ptr, align 8
  store ptr %0, ptr %7, align 8
  store ptr %1, ptr %8, align 8
  store ptr %2, ptr %9, align 8
  store ptr %3, ptr %10, align 8
  store ptr %4, ptr %11, align 8
  %12 = load ptr, ptr %7, align 8
  %13 = call noundef zeroext i1 @_ZNK24cmCPackExternalGenerator14StagingEnabledEv(ptr noundef nonnull align 8 dereferenceable(368) %12)
  br i1 %13, label %14, label %20

14:                                               ; preds = %5
  %15 = load ptr, ptr %8, align 8
  %16 = load ptr, ptr %9, align 8
  %17 = load ptr, ptr %10, align 8
  %18 = load ptr, ptr %11, align 8
  %19 = call noundef i32 @_ZN16cmCPackGenerator19RunPreinstallTargetERKNSt7__cxx1112basic_stringIcSt11char_traitsIcESaIcEEES7_P17cmGlobalGeneratorS7_(ptr noundef nonnull align 8 dereferenceable(360) %12, ptr noundef nonnull align 8 dereferenceable(32) %15, ptr noundef nonnull align 8 dereferenceable(32) %16, ptr noundef %17, ptr noundef nonnull align 8 dereferenceable(32) %18)
  store i32 %19, ptr %6, align 4
  br label %21

20:                                               ; preds = %5
  store i32 1, ptr %6, align 4
  br label %21

21:                                               ; preds = %20, %14
  %22 = load i32, ptr %6, align 4
  ret i32 %22
}