; Function Attrs: mustprogress uwtable
define dso_local noundef i32 @_ZN24cmCPackExternalGenerator19RunPreinstallTargetERKNSt7__cxx1112basic_stringIcSt11char_traitsIcESaIcEEES7_P17cmGlobalGeneratorS7_(ptr noundef nonnull align 8 dereferenceable(368) %0, ptr noundef nonnull align 8 dereferenceable(32) %1, ptr noundef nonnull align 8 dereferenceable(32) %2, ptr noundef %3, ptr noundef nonnull align 8 dereferenceable(32) %4) unnamed_addr #3 align 2 {
  %6 = tail call noundef zeroext i1 @_ZNK24cmCPackExternalGenerator14StagingEnabledEv(ptr noundef nonnull align 8 dereferenceable(368) %0)
  br i1 %6, label %7, label %9

7:                                                ; preds = %5
  %8 = tail call noundef i32 @_ZN16cmCPackGenerator19RunPreinstallTargetERKNSt7__cxx1112basic_stringIcSt11char_traitsIcESaIcEEES7_P17cmGlobalGeneratorS7_(ptr noundef nonnull align 8 dereferenceable(360) %0, ptr noundef nonnull align 8 dereferenceable(32) %1, ptr noundef nonnull align 8 dereferenceable(32) %2, ptr noundef %3, ptr noundef nonnull align 8 dereferenceable(32) %4)
  br label %9

9:                                                ; preds = %5, %7
  %.0 = phi i32 [ %8, %7 ], [ 1, %5 ]
  ret i32 %.0
}